target datalayout = "e-m:e-p270:32:32-p271:32:32-p272:64:64-i64:64-i128:128-f80:128-n8:16:32:64-S128"
target triple = "x86_64-pc-linux-gnu"

%"class.casadi::UniversalNodeOwner" = type <{ ptr, i8, [7 x i8] }>
%"class.casadi::SharedObjectInternal" = type { ptr, i64, ptr }
%"class.casadi::SXNode" = type { ptr, i32, i32 }

; Function Attrs: mustprogress nounwind uwtable
define hidden void @_ZN6casadi18UniversalNodeOwnerD2Ev(ptr noundef nonnull align 8 dereferenceable(9) %0) unnamed_addr #5 align 2 {
  %2 = alloca ptr, align 8
  store ptr %0, ptr %2, align 8
  %3 = load ptr, ptr %2, align 8
  %4 = getelementptr inbounds %"class.casadi::UniversalNodeOwner", ptr %3, i32 0, i32 0
  %5 = load ptr, ptr %4, align 8
  %6 = icmp ne ptr %5, null
  br i1 %6, label %8, label %7

7:                                                ; preds = %1
  br label %46

8:                                                ; preds = %1
  %9 = getelementptr inbounds %"class.casadi::UniversalNodeOwner", ptr %3, i32 0, i32 1
  %10 = load i8, ptr %9, align 8
  %11 = trunc i8 %10 to i1
  br i1 %11, label %12, label %29

12:                                               ; preds = %8
  %13 = getelementptr inbounds %"class.casadi::UniversalNodeOwner", ptr %3, i32 0, i32 0
  %14 = load ptr, ptr %13, align 8
  %15 = getelementptr inbounds %"class.casadi::SXNode", ptr %14, i32 0, i32 2
  %16 = load i32, ptr %15, align 4
  %17 = add i32 %16, -1
  store i32 %17, ptr %15, align 4
  %18 = icmp eq i32 %17, 0
  br i1 %18, label %19, label %28

19:                                               ; preds = %12
  %20 = getelementptr inbounds %"class.casadi::UniversalNodeOwner", ptr %3, i32 0, i32 0
  %21 = load ptr, ptr %20, align 8
  %22 = icmp eq ptr %21, null
  br i1 %22, label %27, label %23

23:                                               ; preds = %19
  %24 = load ptr, ptr %21, align 8
  %25 = getelementptr inbounds ptr, ptr %24, i64 1
  %26 = load ptr, ptr %25, align 8
  call void %26(ptr noundef nonnull align 8 dereferenceable(16) %21) #3
  br label %27

27:                                               ; preds = %23, %19
  br label %28

28:                                               ; preds = %27, %12
  br label %46

29:                                               ; preds = %8
  %30 = getelementptr inbounds %"class.casadi::UniversalNodeOwner", ptr %3, i32 0, i32 0
  %31 = load ptr, ptr %30, align 8
  %32 = getelementptr inbounds %"class.casadi::SharedObjectInternal", ptr %31, i32 0, i32 1
  %33 = load i64, ptr %32, align 8
  %34 = add nsw i64 %33, -1
  store i64 %34, ptr %32, align 8
  %35 = icmp eq i64 %34, 0
  br i1 %35, label %36, label %45

36:                                               ; preds = %29
  %37 = getelementptr inbounds %"class.casadi::UniversalNodeOwner", ptr %3, i32 0, i32 0
  %38 = load ptr, ptr %37, align 8
  %39 = icmp eq ptr %38, null
  br i1 %39, label %44, label %40

40:                                               ; preds = %36
  %41 = load ptr, ptr %38, align 8
  %42 = getelementptr inbounds ptr, ptr %41, i64 1
  %43 = load ptr, ptr %42, align 8
  call void %43(ptr noundef nonnull align 8 dereferenceable(24) %38) #3
  br label %44

44:                                               ; preds = %40, %36
  br label %45

45:                                               ; preds = %44, %29
  br label %46

46:                                               ; preds = %45, %28, %7
  ret void
}