; Function Attrs: mustprogress nounwind uwtable
define hidden void @_ZN6casadi18UniversalNodeOwnerD2Ev(ptr nocapture noundef nonnull readonly align 8 dereferenceable(9) %0) unnamed_addr #4 align 2 {
  %2 = load ptr, ptr %0, align 8
  %.not = icmp eq ptr %2, null
  br i1 %.not, label %31, label %3

3:                                                ; preds = %1
  %4 = getelementptr inbounds i8, ptr %0, i64 8
  %5 = load i8, ptr %4, align 8
  %6 = and i8 %5, 1
  %.not3 = icmp eq i8 %6, 0
  br i1 %.not3, label %19, label %7

7:                                                ; preds = %3
  %8 = getelementptr inbounds i8, ptr %2, i64 12
  %9 = load i32, ptr %8, align 4
  %10 = add i32 %9, -1
  store i32 %10, ptr %8, align 4
  %11 = icmp eq i32 %10, 0
  br i1 %11, label %12, label %31

12:                                               ; preds = %7
  %13 = load ptr, ptr %0, align 8
  %14 = icmp eq ptr %13, null
  br i1 %14, label %31, label %15

15:                                               ; preds = %12
  %16 = load ptr, ptr %13, align 8
  %17 = getelementptr inbounds i8, ptr %16, i64 8
  %18 = load ptr, ptr %17, align 8
  tail call void %18(ptr noundef nonnull align 8 dereferenceable(16) %13) #20
  br label %31

19:                                               ; preds = %3
  %20 = getelementptr inbounds i8, ptr %2, i64 8
  %21 = load i64, ptr %20, align 8
  %22 = add nsw i64 %21, -1
  store i64 %22, ptr %20, align 8
  %23 = icmp eq i64 %22, 0
  br i1 %23, label %24, label %31

24:                                               ; preds = %19
  %25 = load ptr, ptr %0, align 8
  %26 = icmp eq ptr %25, null
  br i1 %26, label %31, label %27

27:                                               ; preds = %24
  %28 = load ptr, ptr %25, align 8
  %29 = getelementptr inbounds i8, ptr %28, i64 8
  %30 = load ptr, ptr %29, align 8
  tail call void %30(ptr noundef nonnull align 8 dereferenceable(24) %25) #20
  br label %31

31:                                               ; preds = %19, %27, %24, %7, %15, %12, %1
  ret void
}